target datalayout = "e-m:e-p270:32:32-p271:32:32-p272:64:64-i64:64-i128:128-f80:128-n8:16:32:64-S128"
target triple = "x86_64-pc-linux-gnu"

%struct.PROV_MAC_CTX = type { ptr, ptr, ptr, ptr }

@.str.1 = private unnamed_addr constant [64 x i8] c"../openssl/providers/implementations/signature/mac_legacy_sig.c\00", align 1

; Function Attrs: nounwind uwtable
define internal ptr @mac_newctx(ptr noundef %0, ptr noundef %1, ptr noundef %2) #0 {
  %4 = alloca ptr, align 8
  %5 = alloca ptr, align 8
  %6 = alloca ptr, align 8
  %7 = alloca ptr, align 8
  %8 = alloca ptr, align 8
  %9 = alloca ptr, align 8
  %10 = alloca i32, align 4
  store ptr %0, ptr %5, align 8, !tbaa !3
  store ptr %1, ptr %6, align 8, !tbaa !7
  store ptr %2, ptr %7, align 8, !tbaa !7
  call void @llvm.lifetime.start.p0(i64 8, ptr %8) #4
  call void @llvm.lifetime.start.p0(i64 8, ptr %9) #4
  store ptr null, ptr %9, align 8, !tbaa !37
  %11 = call i32 @ossl_prov_is_running()
  %12 = icmp ne i32 %11, 0
  br i1 %12, label %14, label %13

13:                                               ; preds = %3
  store ptr null, ptr %4, align 8
  store i32 1, ptr %10, align 4
  br label %62

14:                                               ; preds = %3
  %15 = call noalias ptr @CRYPTO_zalloc(i64 noundef 32, ptr noundef @.str.1, i32 noundef 58)
  store ptr %15, ptr %8, align 8, !tbaa !3
  %16 = load ptr, ptr %8, align 8, !tbaa !3
  %17 = icmp eq ptr %16, null
  br i1 %17, label %18, label %19

18:                                               ; preds = %14
  store ptr null, ptr %4, align 8
  store i32 1, ptr %10, align 4
  br label %62

19:                                               ; preds = %14
  %20 = load ptr, ptr %5, align 8, !tbaa !3
  %21 = call ptr @ossl_prov_ctx_get0_libctx(ptr noundef %20)
  %22 = load ptr, ptr %8, align 8, !tbaa !3
  %23 = getelementptr inbounds nuw %struct.PROV_MAC_CTX, ptr %22, i32 0, i32 0
  store ptr %21, ptr %23, align 8, !tbaa !39
  %24 = load ptr, ptr %6, align 8, !tbaa !7
  %25 = icmp ne ptr %24, null
  br i1 %25, label %26, label %33

26:                                               ; preds = %19
  %27 = load ptr, ptr %6, align 8, !tbaa !7
  %28 = call noalias ptr @CRYPTO_strdup(ptr noundef %27, ptr noundef @.str.1, i32 noundef 63)
  %29 = load ptr, ptr %8, align 8, !tbaa !3
  %30 = getelementptr inbounds nuw %struct.PROV_MAC_CTX, ptr %29, i32 0, i32 1
  store ptr %28, ptr %30, align 8, !tbaa !32
  %31 = icmp eq ptr %28, null
  br i1 %31, label %32, label %33

32:                                               ; preds = %26
  br label %56

33:                                               ; preds = %26, %19
  %34 = load ptr, ptr %8, align 8, !tbaa !3
  %35 = getelementptr inbounds nuw %struct.PROV_MAC_CTX, ptr %34, i32 0, i32 0
  %36 = load ptr, ptr %35, align 8, !tbaa !39
  %37 = load ptr, ptr %7, align 8, !tbaa !7
  %38 = load ptr, ptr %6, align 8, !tbaa !7
  %39 = call ptr @EVP_MAC_fetch(ptr noundef %36, ptr noundef %37, ptr noundef %38)
  store ptr %39, ptr %9, align 8, !tbaa !37
  %40 = load ptr, ptr %9, align 8, !tbaa !37
  %41 = icmp eq ptr %40, null
  br i1 %41, label %42, label %43

42:                                               ; preds = %33
  br label %56

43:                                               ; preds = %33
  %44 = load ptr, ptr %9, align 8, !tbaa !37
  %45 = call ptr @EVP_MAC_CTX_new(ptr noundef %44)
  %46 = load ptr, ptr %8, align 8, !tbaa !3
  %47 = getelementptr inbounds nuw %struct.PROV_MAC_CTX, ptr %46, i32 0, i32 3
  store ptr %45, ptr %47, align 8, !tbaa !25
  %48 = load ptr, ptr %8, align 8, !tbaa !3
  %49 = getelementptr inbounds nuw %struct.PROV_MAC_CTX, ptr %48, i32 0, i32 3
  %50 = load ptr, ptr %49, align 8, !tbaa !25
  %51 = icmp eq ptr %50, null
  br i1 %51, label %52, label %53

52:                                               ; preds = %43
  br label %56

53:                                               ; preds = %43
  %54 = load ptr, ptr %9, align 8, !tbaa !37
  call void @EVP_MAC_free(ptr noundef %54)
  %55 = load ptr, ptr %8, align 8, !tbaa !3
  store ptr %55, ptr %4, align 8
  store i32 1, ptr %10, align 4
  br label %62

56:                                               ; preds = %52, %42, %32
  %57 = load ptr, ptr %8, align 8, !tbaa !3
  %58 = getelementptr inbounds nuw %struct.PROV_MAC_CTX, ptr %57, i32 0, i32 1
  %59 = load ptr, ptr %58, align 8, !tbaa !32
  call void @CRYPTO_free(ptr noundef %59, ptr noundef @.str.1, i32 noundef 79)
  %60 = load ptr, ptr %8, align 8, !tbaa !3
  call void @CRYPTO_free(ptr noundef %60, ptr noundef @.str.1, i32 noundef 80)
  %61 = load ptr, ptr %9, align 8, !tbaa !37
  call void @EVP_MAC_free(ptr noundef %61)
  store ptr null, ptr %4, align 8
  store i32 1, ptr %10, align 4
  br label %62

62:                                               ; preds = %56, %53, %18, %13
  call void @llvm.lifetime.end.p0(i64 8, ptr %9) #4
  call void @llvm.lifetime.end.p0(i64 8, ptr %8) #4
  %63 = load ptr, ptr %4, align 8
  ret ptr %63
}