; Function Attrs: nounwind uwtable
define internal fastcc ptr @mac_newctx(ptr noundef %0, ptr noundef %1, ptr noundef %2) unnamed_addr #0 {
  %4 = tail call i32 @ossl_prov_is_running() #3
  %.not = icmp eq i32 %4, 0
  br i1 %.not, label %24, label %5

5:                                                ; preds = %3
  %6 = tail call noalias ptr @CRYPTO_zalloc(i64 noundef 32, ptr noundef nonnull @.str.1, i32 noundef 58) #3
  %7 = icmp eq ptr %6, null
  br i1 %7, label %24, label %8

8:                                                ; preds = %5
  %9 = tail call ptr @ossl_prov_ctx_get0_libctx(ptr noundef %0) #3
  store ptr %9, ptr %6, align 8, !tbaa !27
  %.not23 = icmp eq ptr %1, null
  br i1 %.not23, label %14, label %10

10:                                               ; preds = %8
  %11 = tail call noalias ptr @CRYPTO_strdup(ptr noundef nonnull %1, ptr noundef nonnull @.str.1, i32 noundef 63) #3
  %12 = getelementptr inbounds nuw i8, ptr %6, i64 8
  store ptr %11, ptr %12, align 8, !tbaa !25
  %13 = icmp eq ptr %11, null
  br i1 %13, label %21, label %14

14:                                               ; preds = %10, %8
  %15 = tail call ptr @EVP_MAC_fetch(ptr noundef %9, ptr noundef %2, ptr noundef %1) #3
  %16 = icmp eq ptr %15, null
  br i1 %16, label %21, label %17

17:                                               ; preds = %14
  %18 = tail call ptr @EVP_MAC_CTX_new(ptr noundef nonnull %15) #3
  %19 = getelementptr inbounds nuw i8, ptr %6, i64 24
  store ptr %18, ptr %19, align 8, !tbaa !21
  %20 = icmp eq ptr %18, null
  br i1 %20, label %21, label %.sink.split

21:                                               ; preds = %17, %14, %10
  %.0 = phi ptr [ null, %10 ], [ null, %14 ], [ %15, %17 ]
  %22 = getelementptr inbounds nuw i8, ptr %6, i64 8
  %23 = load ptr, ptr %22, align 8, !tbaa !25
  tail call void @CRYPTO_free(ptr noundef %23, ptr noundef nonnull @.str.1, i32 noundef 79) #3
  tail call void @CRYPTO_free(ptr noundef nonnull %6, ptr noundef nonnull @.str.1, i32 noundef 80) #3
  br label %.sink.split

.sink.split:                                      ; preds = %17, %21
  %.0.sink = phi ptr [ %.0, %21 ], [ %15, %17 ]
  %.019.ph = phi ptr [ null, %21 ], [ %6, %17 ]
  tail call void @EVP_MAC_free(ptr noundef %.0.sink) #3
  br label %24

24:                                               ; preds = %.sink.split, %5, %3
  %.019 = phi ptr [ null, %3 ], [ null, %5 ], [ %.019.ph, %.sink.split ]
  ret ptr %.019
}